	.syntax unified
	.cpu cortex-m3
	.fpu softvfp
	.eabi_attribute 20, 1
	.eabi_attribute 21, 1
	.eabi_attribute 23, 3
	.eabi_attribute 24, 1
	.eabi_attribute 25, 1
	.eabi_attribute 26, 1
	.eabi_attribute 30, 4
	.eabi_attribute 18, 4
	.file	"platform_STM32L1xx.c"
@ GNU C (Sourcery G++ Lite 2011.03-42) version 4.5.2 (arm-none-eabi)
@	compiled by GNU C version 4.3.2, GMP version 4.3.2, MPFR version 2.4.2, MPC version 0.8.1
@ GGC heuristics: --param ggc-min-expand=100 --param ggc-min-heapsize=131072
@ options passed:  -fpreprocessed platform_STM32L1xx.i -mthumb
@ -mcpu=cortex-m3 -mlittle-endian -auxbase-strip
@ B:\apps\demo_ponglt\proj_ride7\platform_STM32L1xx.o -g -Os
@ -funsigned-char -ffunction-sections -fverbose-asm
@ options enabled:  -falign-loops -fargument-alias -fauto-inc-dec
@ -fbranch-count-reg -fcaller-saves -fcommon -fcprop-registers
@ -fcrossjumping -fcse-follow-jumps -fdefer-pop
@ -fdelete-null-pointer-checks -fdwarf2-cfi-asm -fearly-inlining
@ -feliminate-unused-debug-types -fexpensive-optimizations
@ -fextension-elimination -fforward-propagate -ffunction-cse
@ -ffunction-sections -fgcse -fgcse-lm -fguess-branch-probability -fident
@ -fif-conversion -fif-conversion2 -findirect-inlining -finline
@ -finline-functions -finline-functions-called-once
@ -finline-small-functions -fipa-cp -fipa-pure-const -fipa-reference
@ -fipa-sra -fira-share-save-slots -fira-share-spill-slots -fivopts
@ -fkeep-static-consts -fleading-underscore -fmath-errno -fmerge-constants
@ -fmerge-debug-strings -fomit-frame-pointer -foptimize-register-move
@ -foptimize-sibling-calls -fpeephole -fpeephole2 -freg-struct-return
@ -fregmove -freorder-blocks -freorder-functions -frerun-cse-after-loop
@ -fsched-critical-path-heuristic -fsched-dep-count-heuristic
@ -fsched-group-heuristic -fsched-interblock -fsched-last-insn-heuristic
@ -fsched-rank-heuristic -fsched-spec -fsched-spec-insn-heuristic
@ -fsched-stalled-insns-dep -fschedule-insns2 -fsection-anchors
@ -fshow-column -fsigned-zeros -fsplit-ivs-in-unroller -fsplit-wide-types
@ -fstrict-aliasing -fstrict-overflow -fstrict-volatile-bitfields
@ -fthread-jumps -ftoplevel-reorder -ftrapping-math -ftree-builtin-call-dce
@ -ftree-ccp -ftree-ch -ftree-copy-prop -ftree-copyrename -ftree-cselim
@ -ftree-dce -ftree-dominator-opts -ftree-dse -ftree-forwprop -ftree-fre
@ -ftree-if-to-switch-conversion -ftree-loop-im -ftree-loop-ivcanon
@ -ftree-loop-optimize -ftree-parallelize-loops= -ftree-phiprop -ftree-pta
@ -ftree-reassoc -ftree-scev-cprop -ftree-sink -ftree-slp-vectorize
@ -ftree-sra -ftree-switch-conversion -ftree-ter -ftree-vect-loop-version
@ -ftree-vrp -funit-at-a-time -fvar-tracking -fvar-tracking-assignments
@ -fverbose-asm -fzero-initialized-in-bss -mfix-cortex-m3-ldrd
@ -mlittle-endian -msched-prolog -mthumb -munaligned-access

	.text
.Ltext0:
@ Compiler executable checksum: d985438640072664965a7048a2edf242

	.cfi_sections	.debug_frame
	.section	.text.BOARD_PERIPH_INIT,"ax",%progbits
	.align	1
	.global	BOARD_PERIPH_INIT
	.thumb
	.thumb_func
	.type	BOARD_PERIPH_INIT, %function
BOARD_PERIPH_INIT:
.LFB29:
	.file 1 "B:\\board/stm32l1xx/board_IKR001.h"
	.loc 1 457 0
	.cfi_startproc
	@ args = 0, pretend = 0, frame = 0
	@ frame_needed = 0, uses_anonymous_args = 0
	@ link register save eliminated.
	.loc 1 459 0
	ldr	r3, .L2	@ tmp139,
	ldr	r2, .L2+4	@ D.7895,
	ldr	r1, [r3, #28]	@ D.7894, 1073887232B->AHBENR
	orr	r2, r1, r2	@ D.7895, D.7894, D.7895
	str	r2, [r3, #28]	@ D.7895, 1073887232B->AHBENR
	.loc 1 462 0
	ldr	r2, .L2+8	@ tmp143,
	str	r2, [r3, #40]	@ tmp143, 1073887232B->AHBLPENR
	.loc 1 468 0
	ldr	r2, [r3, #32]	@ D.7896, 1073887232B->APB2ENR
	orr	r2, r2, #1	@ D.7897, D.7896,
	str	r2, [r3, #32]	@ D.7897, 1073887232B->APB2ENR
	.loc 1 475 0
	ldr	r2, [r3, #36]	@ D.7898, 1073887232B->APB1ENR
	orr	r2, r2, #268435456	@ D.7899, D.7898,
	str	r2, [r3, #36]	@ D.7899, 1073887232B->APB1ENR
	.loc 1 476 0
	bx	lr	@
.L3:
	.align	2
.L2:
	.word	1073887232
	.word	16810015
	.word	16875551
	.cfi_endproc
.LFE29:
	.size	BOARD_PERIPH_INIT, .-BOARD_PERIPH_INIT
	.section	.text.BOARD_DMA_CLKON,"ax",%progbits
	.align	1
	.global	BOARD_DMA_CLKON
	.thumb
	.thumb_func
	.type	BOARD_DMA_CLKON, %function
BOARD_DMA_CLKON:
.LFB30:
	.loc 1 480 0
	.cfi_startproc
	@ args = 0, pretend = 0, frame = 0
	@ frame_needed = 0, uses_anonymous_args = 0
	@ link register save eliminated.
	.loc 1 489 0
	bx	lr	@
	.cfi_endproc
.LFE30:
	.size	BOARD_DMA_CLKON, .-BOARD_DMA_CLKON
	.section	.text.BOARD_DMA_CLKOFF,"ax",%progbits
	.align	1
	.global	BOARD_DMA_CLKOFF
	.thumb
	.thumb_func
	.type	BOARD_DMA_CLKOFF, %function
BOARD_DMA_CLKOFF:
.LFB31:
	.loc 1 491 0
	.cfi_startproc
	@ args = 0, pretend = 0, frame = 0
	@ frame_needed = 0, uses_anonymous_args = 0
	@ link register save eliminated.
	.loc 1 500 0
	bx	lr	@
	.cfi_endproc
.LFE31:
	.size	BOARD_DMA_CLKOFF, .-BOARD_DMA_CLKOFF
	.section	.text.BOARD_EXTI_STARTUP,"ax",%progbits
	.align	1
	.global	BOARD_EXTI_STARTUP
	.thumb
	.thumb_func
	.type	BOARD_EXTI_STARTUP, %function
BOARD_EXTI_STARTUP:
.LFB32:
	.loc 1 519 0
	.cfi_startproc
	@ args = 0, pretend = 0, frame = 0
	@ frame_needed = 0, uses_anonymous_args = 0
	@ link register save eliminated.
	.loc 1 524 0
	ldr	r3, .L7	@ tmp137,
	ldr	r2, [r3, #16]	@ D.7889, 1073807360B->EXTICR
	orr	r2, r2, #9280	@ D.7890, D.7889,
	str	r2, [r3, #16]	@ D.7890, 1073807360B->EXTICR
	.loc 1 529 0
	ldr	r2, [r3, #20]	@ D.7891, 1073807360B->EXTICR
	orr	r2, r2, #544	@ D.7892, D.7891,
	orr	r2, r2, #2	@ D.7892, D.7892,
	str	r2, [r3, #20]	@ D.7892, 1073807360B->EXTICR
	.loc 1 535 0
	bx	lr	@
.L8:
	.align	2
.L7:
	.word	1073807360
	.cfi_endproc
.LFE32:
	.size	BOARD_EXTI_STARTUP, .-BOARD_EXTI_STARTUP
	.section	.text.BOARD_PORT_STARTUP,"ax",%progbits
	.align	1
	.global	BOARD_PORT_STARTUP
	.thumb
	.thumb_func
	.type	BOARD_PORT_STARTUP, %function
BOARD_PORT_STARTUP:
.LFB33:
	.loc 1 541 0
	.cfi_startproc
	@ args = 0, pretend = 0, frame = 0
	@ frame_needed = 0, uses_anonymous_args = 0
	.loc 1 590 0
	ldr	r2, .L10	@ tmp187,
	.loc 1 594 0
	ldr	r0, .L10+4	@ tmp189,
	.loc 1 590 0
	ldr	r3, [r2, #0]	@ D.7829, 1073872896B->MODER
	.loc 1 541 0
	push	{r4, lr}	@
.LCFI0:
	.cfi_def_cfa_offset 8
	.loc 1 590 0
	orr	r3, r3, #3072	@ D.7830, D.7829,
	str	r3, [r2, #0]	@ D.7830, 1073872896B->MODER
	.loc 1 594 0
	ldr	r3, [r0, #0]	@ D.7832, 1073874944B->MODER
	.loc 1 627 0
	movs	r1, #21	@ tmp196,
	.loc 1 594 0
	orr	r3, r3, #3840	@ D.7833, D.7832,
	str	r3, [r0, #0]	@ D.7833, 1073874944B->MODER
	.loc 1 600 0
	ldr	r3, [r2, #0]	@ D.7834, 1073872896B->MODER
	orr	r3, r3, #165	@ D.7835, D.7834,
	str	r3, [r2, #0]	@ D.7835, 1073872896B->MODER
	.loc 1 605 0
	ldr	r3, [r2, #32]	@ D.7836, 1073872896B->AFR
	orr	r3, r3, #30464	@ D.7837, D.7836,
	str	r3, [r2, #32]	@ D.7837, 1073872896B->AFR
	.loc 1 627 0
	ldr	r3, .L10+8	@ tmp195,
	str	r1, [r3, #0]	@ tmp196, 1073878016B->MODER
	.loc 1 629 0
	ldr	r3, [r2, #0]	@ D.7839, 1073872896B->MODER
	.loc 1 635 0
	ldr	r1, .L10+12	@ tmp199,
	.loc 1 629 0
	orr	r3, r3, #20971520	@ D.7840, D.7839,
	str	r3, [r2, #0]	@ D.7840, 1073872896B->MODER
	.loc 1 635 0
	ldrh	r3, [r1, #4]	@, 1073873920B->OTYPER
	uxth	r3, r3	@ D.7842, 1073873920B->OTYPER
	orr	r3, r3, #3072	@ D.7843, D.7842,
	strh	r3, [r1, #4]	@ movhi	@ D.7843, 1073873920B->OTYPER
	.loc 1 636 0
	ldr	r3, [r1, #8]	@ D.7844, 1073873920B->OSPEEDR
	orr	r3, r3, #5242880	@ D.7845, D.7844,
	str	r3, [r1, #8]	@ D.7845, 1073873920B->OSPEEDR
	.loc 1 638 0
	ldr	r3, [r1, #0]	@ D.7846, 1073873920B->MODER
	orr	r3, r3, #10485760	@ D.7847, D.7846,
	str	r3, [r1, #0]	@ D.7847, 1073873920B->MODER
	.loc 1 641 0
	ldr	r3, [r1, #36]	@ D.7848, 1073873920B->AFR
	orr	r3, r3, #17408	@ D.7849, D.7848,
	str	r3, [r1, #36]	@ D.7849, 1073873920B->AFR
	.loc 1 649 0
	ldr	r3, [r2, #0]	@ D.7850, 1073872896B->MODER
	orr	r3, r3, #262144	@ D.7851, D.7850,
	str	r3, [r2, #0]	@ D.7851, 1073872896B->MODER
	.loc 1 650 0
	ldr	r3, .L10+16	@ tmp212,
	ldr	r4, [r3, #0]	@ D.7853, 1073876992B->MODER
	.cfi_offset 14, -4
	.cfi_offset 4, -8
	orr	r4, r4, #1048576	@ D.7854, D.7853,
	str	r4, [r3, #0]	@ D.7854, 1073876992B->MODER
	.loc 1 651 0
	ldr	r4, [r1, #0]	@ D.7855, 1073873920B->MODER
	orr	r4, r4, #1426063360	@ D.7856, D.7855,
	str	r4, [r1, #0]	@ D.7856, 1073873920B->MODER
	.loc 1 659 0
	ldr	r4, [r2, #0]	@ D.7857, 1073872896B->MODER
	orr	r4, r4, #65536	@ D.7858, D.7857,
	str	r4, [r2, #0]	@ D.7858, 1073872896B->MODER
	.loc 1 664 0
	ldr	r4, [r0, #0]	@ D.7859, 1073874944B->MODER
	orr	r4, r4, #67108864	@ D.7860, D.7859,
	str	r4, [r0, #0]	@ D.7860, 1073874944B->MODER
	.loc 1 665 0
	ldr	r4, [r0, #8]	@ D.7861, 1073874944B->OSPEEDR
	orr	r4, r4, #67108864	@ D.7862, D.7861,
	str	r4, [r0, #8]	@ D.7862, 1073874944B->OSPEEDR
	.loc 1 666 0
	ldr	r0, [r3, #0]	@ D.7863, 1073876992B->MODER
	orr	r0, r0, #-1442840576	@ D.7864, D.7863,
	str	r0, [r3, #0]	@ D.7864, 1073876992B->MODER
	.loc 1 670 0
	ldr	r0, [r3, #8]	@ D.7865, 1073876992B->OSPEEDR
	orr	r0, r0, #-1442840576	@ D.7866, D.7865,
	str	r0, [r3, #8]	@ D.7866, 1073876992B->OSPEEDR
	.loc 1 674 0
	ldr	r0, [r3, #36]	@ D.7867, 1073876992B->AFR
	orr	r0, r0, #1426063360	@ D.7868, D.7867,
	orr	r0, r0, #5570560	@ D.7868, D.7868,
	str	r0, [r3, #36]	@ D.7868, 1073876992B->AFR
	.loc 1 682 0
	ldr	r0, [r3, #0]	@ D.7869, 1073876992B->MODER
	orr	r0, r0, #640	@ D.7870, D.7869,
	str	r0, [r3, #0]	@ D.7870, 1073876992B->MODER
	.loc 1 689 0
	ldr	r0, [r3, #0]	@ D.7871, 1073876992B->MODER
	orr	r0, r0, #2048	@ D.7872, D.7871,
	str	r0, [r3, #0]	@ D.7872, 1073876992B->MODER
	.loc 1 690 0
	ldr	r0, [r3, #0]	@ D.7873, 1073876992B->MODER
	orr	r0, r0, #8192	@ D.7874, D.7873,
	str	r0, [r3, #0]	@ D.7874, 1073876992B->MODER
	.loc 1 691 0
	ldr	r0, [r3, #32]	@ D.7875, 1073876992B->AFR
	orr	r0, r0, #3145728	@ D.7876, D.7875,
	str	r0, [r3, #32]	@ D.7876, 1073876992B->AFR
	.loc 1 692 0
	ldr	r0, [r3, #32]	@ D.7877, 1073876992B->AFR
	orr	r0, r0, #50331648	@ D.7878, D.7877,
	str	r0, [r3, #32]	@ D.7878, 1073876992B->AFR
	.loc 1 697 0
	ldr	r0, [r2, #0]	@ D.7879, 1073872896B->MODER
	orr	r0, r0, #1064960	@ D.7880, D.7879,
	orr	r0, r0, #4352	@ D.7880, D.7880,
	str	r0, [r2, #0]	@ D.7880, 1073872896B->MODER
	.loc 1 700 0
	ldr	r2, [r1, #0]	@ D.7881, 1073873920B->MODER
	orr	r2, r2, #1024	@ D.7882, D.7881,
	str	r2, [r1, #0]	@ D.7882, 1073873920B->MODER
	.loc 1 702 0
	ldr	r1, .L10+20	@ tmp244,
	ldr	r2, .L10+24	@ D.7885,
	ldr	r0, [r1, #0]	@ D.7884, 1073875968B->MODER
	orr	r2, r0, r2	@ D.7885, D.7884, D.7885
	str	r2, [r1, #0]	@ D.7885, 1073875968B->MODER
	.loc 1 709 0
	ldr	r2, [r3, #0]	@ D.7886, 1073876992B->MODER
	orr	r2, r2, #4194304	@ D.7887, D.7886,
	orr	r2, r2, #21	@ D.7887, D.7887,
	str	r2, [r3, #0]	@ D.7887, 1073876992B->MODER
	.loc 1 713 0
	pop	{r4, pc}	@
.L11:
	.align	2
.L10:
	.word	1073872896
	.word	1073874944
	.word	1073878016
	.word	1073873920
	.word	1073876992
	.word	1073875968
	.word	1431655424
	.cfi_endproc
.LFE33:
	.size	BOARD_PORT_STARTUP, .-BOARD_PORT_STARTUP
	.section	.text.BOARD_PORT_STANDBY,"ax",%progbits
	.align	1
	.global	BOARD_PORT_STANDBY
	.thumb
	.thumb_func
	.type	BOARD_PORT_STANDBY, %function
BOARD_PORT_STANDBY:
.LFB34:
	.loc 1 717 0
	.cfi_startproc
	@ args = 0, pretend = 0, frame = 0
	@ frame_needed = 0, uses_anonymous_args = 0
	@ link register save eliminated.
	.loc 1 741 0
	ldr	r3, .L13	@ tmp141,
	ldr	r2, [r3, #0]	@ D.7819, 1073872896B->MODER
	orr	r2, r2, #165	@ D.7820, D.7819,
	str	r2, [r3, #0]	@ D.7820, 1073872896B->MODER
	.loc 1 771 0
	ldr	r3, .L13+4	@ tmp143,
	ldr	r2, [r3, #0]	@ D.7822, 1073876992B->MODER
	orr	r2, r2, #-1442840576	@ D.7823, D.7822,
	str	r2, [r3, #0]	@ D.7823, 1073876992B->MODER
	.loc 1 775 0
	ldr	r2, [r3, #8]	@ D.7824, 1073876992B->OSPEEDR
	orr	r2, r2, #-1442840576	@ D.7825, D.7824,
	str	r2, [r3, #8]	@ D.7825, 1073876992B->OSPEEDR
	.loc 1 779 0
	ldr	r2, [r3, #36]	@ D.7826, 1073876992B->AFR
	orr	r2, r2, #1426063360	@ D.7827, D.7826,
	orr	r2, r2, #5570560	@ D.7827, D.7827,
	str	r2, [r3, #36]	@ D.7827, 1073876992B->AFR
	.loc 1 795 0
	bx	lr	@
.L14:
	.align	2
.L13:
	.word	1073872896
	.word	1073876992
	.cfi_endproc
.LFE34:
	.size	BOARD_PORT_STANDBY, .-BOARD_PORT_STANDBY
	.section	.text.BOARD_POWER_STARTUP,"ax",%progbits
	.align	1
	.global	BOARD_POWER_STARTUP
	.thumb
	.thumb_func
	.type	BOARD_POWER_STARTUP, %function
BOARD_POWER_STARTUP:
.LFB35:
	.loc 1 802 0
	.cfi_startproc
	@ args = 0, pretend = 0, frame = 0
	@ frame_needed = 0, uses_anonymous_args = 0
	@ link register save eliminated.
	.loc 1 808 0
	bx	lr	@
	.cfi_endproc
.LFE35:
	.size	BOARD_POWER_STARTUP, .-BOARD_POWER_STARTUP
	.section	.text.BOARD_XTAL_STARTUP,"ax",%progbits
	.align	1
	.global	BOARD_XTAL_STARTUP
	.thumb
	.thumb_func
	.type	BOARD_XTAL_STARTUP, %function
BOARD_XTAL_STARTUP:
.LFB36:
	.loc 1 817 0
	.cfi_startproc
	@ args = 0, pretend = 0, frame = 0
	@ frame_needed = 0, uses_anonymous_args = 0
	@ link register save eliminated.
	.loc 1 820 0
	bx	lr	@
	.cfi_endproc
.LFE36:
	.size	BOARD_XTAL_STARTUP, .-BOARD_XTAL_STARTUP
	.section	.text.NMI_Handler,"ax",%progbits
	.align	1
	.global	NMI_Handler
	.thumb
	.thumb_func
	.type	NMI_Handler, %function
NMI_Handler:
.LFB37:
	.file 2 "B:\\otplatform\\stm32l1xx\\platform_STM32L1xx.c"
	.loc 2 225 0
	.cfi_startproc
	@ args = 0, pretend = 0, frame = 0
	@ frame_needed = 0, uses_anonymous_args = 0
	@ link register save eliminated.
	.loc 2 229 0
	ldr	r3, .L20	@ tmp135,
	ldrh	r0, [r3, #0]	@ D.7814, platform.error_code
	cbnz	r0, .L18	@ D.7814,
.L19:
	b	.L19	@
.L18:
.LVL0:
	.loc 2 234 0
	movs	r2, #0	@,
	.loc 2 235 0
	uxtb	r0, r0	@, D.7814
.LVL1:
	.loc 2 234 0
	strh	r2, [r3, #0]	@ movhi	@, platform.error_code
	.loc 2 236 0
	.loc 2 235 0
	b	sys_panic	@
.L21:
	.align	2
.L20:
	.word	platform
	.cfi_endproc
.LFE37:
	.size	NMI_Handler, .-NMI_Handler
	.section	.text.HardFault_Handler,"ax",%progbits
	.align	1
	.global	HardFault_Handler
	.thumb
	.thumb_func
	.type	HardFault_Handler, %function
HardFault_Handler:
.LFB38:
	.loc 2 239 0
	.cfi_startproc
	@ args = 0, pretend = 0, frame = 0
	@ frame_needed = 0, uses_anonymous_args = 0
	@ link register save eliminated.
.L23:
	b	.L23	@
	.cfi_endproc
.LFE38:
	.size	HardFault_Handler, .-HardFault_Handler
	.section	.text.MemManage_Handler,"ax",%progbits
	.align	1
	.global	MemManage_Handler
	.thumb
	.thumb_func
	.type	MemManage_Handler, %function
MemManage_Handler:
.LFB39:
	.loc 2 248 0
	.cfi_startproc
	@ args = 0, pretend = 0, frame = 0
	@ frame_needed = 0, uses_anonymous_args = 0
	@ link register save eliminated.
.L25:
	b	.L25	@
	.cfi_endproc
.LFE39:
	.size	MemManage_Handler, .-MemManage_Handler
	.section	.text.BusFault_Handler,"ax",%progbits
	.align	1
	.global	BusFault_Handler
	.thumb
	.thumb_func
	.type	BusFault_Handler, %function
BusFault_Handler:
.LFB40:
	.loc 2 257 0
	.cfi_startproc
	@ args = 0, pretend = 0, frame = 0
	@ frame_needed = 0, uses_anonymous_args = 0
	@ link register save eliminated.
.L27:
	b	.L27	@
	.cfi_endproc
.LFE40:
	.size	BusFault_Handler, .-BusFault_Handler
	.section	.text.UsageFault_Handler,"ax",%progbits
	.align	1
	.global	UsageFault_Handler
	.thumb
	.thumb_func
	.type	UsageFault_Handler, %function
UsageFault_Handler:
.LFB41:
	.loc 2 266 0
	.cfi_startproc
	@ args = 0, pretend = 0, frame = 0
	@ frame_needed = 0, uses_anonymous_args = 0
	@ link register save eliminated.
.L29:
	b	.L29	@
	.cfi_endproc
.LFE41:
	.size	UsageFault_Handler, .-UsageFault_Handler
	.section	.text.DebugMon_Handler,"ax",%progbits
	.align	1
	.global	DebugMon_Handler
	.thumb
	.thumb_func
	.type	DebugMon_Handler, %function
DebugMon_Handler:
.LFB42:
	.loc 2 275 0
	.cfi_startproc
	@ args = 0, pretend = 0, frame = 0
	@ frame_needed = 0, uses_anonymous_args = 0
	@ link register save eliminated.
	.loc 2 275 0
	bx	lr	@
	.cfi_endproc
.LFE42:
	.size	DebugMon_Handler, .-DebugMon_Handler
	.section	.text.SVC_Handler,"ax",%progbits
	.align	1
	.global	SVC_Handler
	.thumb
	.thumb_func
	.type	SVC_Handler, %function
SVC_Handler:
.LFB43:
	.loc 2 282 0
	.cfi_startproc
	@ args = 0, pretend = 0, frame = 0
	@ frame_needed = 0, uses_anonymous_args = 0
	push	{r3, lr}	@
.LCFI1:
	.cfi_def_cfa_offset 8
	.loc 2 287 0
	.cfi_offset 14, -4
	.cfi_offset 3, -8
	bl	sys_event_manager	@
	ldr	r3, .L34	@ tmp138,
	strh	r0, [r3, #170]	@ movhi	@ tmp137, platform_ext.next_evt
	.loc 2 288 0
	ldr	r3, .L34+4	@ tmp140,
	cmp	r0, #0	@ tmp137,
	ite	eq	@
	moveq	r0, #268435456	@, iftmp.16,
	movne	r0, #0	@, iftmp.16,
	ldr	r2, [r3, #4]	@ D.7807, 3758157056B->ICSR
	orrs	r0, r0, r2	@, D.7813, iftmp.16, D.7807
	str	r0, [r3, #4]	@ D.7813, 3758157056B->ICSR
	.loc 2 320 0
	pop	{r3, pc}	@
.L35:
	.align	2
.L34:
	.word	platform_ext
	.word	-536810240
	.cfi_endproc
.LFE43:
	.size	SVC_Handler, .-SVC_Handler
	.section	.text.OT_GPTIM_ISR,"ax",%progbits
	.align	1
	.global	OT_GPTIM_ISR
	.thumb
	.thumb_func
	.type	OT_GPTIM_ISR, %function
OT_GPTIM_ISR:
.LFB44:
	.loc 2 323 0
	.cfi_startproc
	@ args = 0, pretend = 0, frame = 0
	@ frame_needed = 0, uses_anonymous_args = 0
	@ link register save eliminated.
	.loc 2 327 0
	.loc 2 326 0
	b	SET_PENDSV	@
	.cfi_endproc
.LFE44:
	.size	OT_GPTIM_ISR, .-OT_GPTIM_ISR
	.section	.text.PendSV_Handler,"ax",%progbits
	.align	1
	.global	PendSV_Handler
	.thumb
	.thumb_func
	.type	PendSV_Handler, %function
PendSV_Handler:
.LFB45:
	.loc 2 330 0
	.cfi_startproc
	@ args = 0, pretend = 0, frame = 0
	@ frame_needed = 0, uses_anonymous_args = 0
	@ link register save eliminated.
	.loc 2 346 0
	.loc 2 339 0
	b	CLR_PENDSV	@
	.cfi_endproc
.LFE45:
	.size	PendSV_Handler, .-PendSV_Handler
	.section	.text.WWDG_IRQHandler,"ax",%progbits
	.align	1
	.global	WWDG_IRQHandler
	.thumb
	.thumb_func
	.type	WWDG_IRQHandler, %function
WWDG_IRQHandler:
.LFB46:
	.loc 2 359 0
	.cfi_startproc
	@ args = 0, pretend = 0, frame = 0
	@ frame_needed = 0, uses_anonymous_args = 0
	@ link register save eliminated.
	.loc 2 360 0
	bx	lr	@
	.cfi_endproc
.LFE46:
	.size	WWDG_IRQHandler, .-WWDG_IRQHandler
	.section	.text.platform_poweroff,"ax",%progbits
	.align	1
	.global	platform_poweroff
	.thumb
	.thumb_func
	.type	platform_poweroff, %function
platform_poweroff:
.LFB48:
	.loc 2 472 0
	.cfi_startproc
	@ args = 0, pretend = 0, frame = 0
	@ frame_needed = 0, uses_anonymous_args = 0
	push	{r4, lr}	@
.LCFI2:
	.cfi_def_cfa_offset 8
	.loc 2 473 0
	.cfi_offset 14, -4
	.cfi_offset 4, -8
	bl	ISF_syncmirror	@
	.loc 2 479 0
	pop	{r4, lr}	@
	.loc 2 474 0
	b	vworm_save	@
	.cfi_endproc
.LFE48:
	.size	platform_poweroff, .-platform_poweroff
	.section	.text.platform_init_OT,"ax",%progbits
	.align	1
	.global	platform_init_OT
	.thumb
	.thumb_func
	.type	platform_init_OT, %function
platform_init_OT:
.LFB49:
	.loc 2 485 0
	.cfi_startproc
	@ args = 0, pretend = 0, frame = 0
	@ frame_needed = 0, uses_anonymous_args = 0
	push	{r4, r5, r6, lr}	@
.LCFI3:
	.cfi_def_cfa_offset 16
	.loc 2 489 0
	.cfi_offset 14, -4
	.cfi_offset 6, -8
	.cfi_offset 5, -12
	.cfi_offset 4, -16
	bl	buffers_init	@
	.loc 2 490 0
	bl	vl_init	@
	.loc 2 500 0
	bl	sys_init	@
.LBB4:
	.loc 2 513 0
	movs	r0, #1	@,
	bl	ISF_open_su	@
	.loc 2 514 0
	ldr	r4, .L42	@ hwid,
	.loc 2 513 0
	mov	r5, r0	@ fpid,
.LVL2:
	.loc 2 515 0
	movs	r6, #6	@ i,
.LVL3:
.L41:
	.loc 2 513 0 discriminator 2
	uxth	r6, r6	@ i.14, i
	.loc 2 516 0 discriminator 2
	mov	r1, r6	@, i.14
	ldrh	r2, [r4], #2	@,
.LVL4:
	mov	r0, r5	@, fpid
	bl	vl_write	@
	.loc 2 515 0 discriminator 2
	ldr	r3, .L42+4	@ tmp192,
	.loc 2 485 0 discriminator 2
	subs	r6, r6, #2	@ tmp191, i.14,
.LVL5:
	.loc 2 515 0 discriminator 2
	cmp	r4, r3	@ hwid, tmp192
	bne	.L41	@,
	.loc 2 518 0
	mov	r0, r5	@, fpid
.LBE4:
	.loc 2 521 0
	pop	{r4, r5, r6, lr}	@
.LBB5:
	.loc 2 518 0
	b	vl_close	@
.L43:
	.align	2
.L42:
	.word	536346704
	.word	536346710
.LBE5:
	.cfi_endproc
.LFE49:
	.size	platform_init_OT, .-platform_init_OT
	.section	.text.sub_msflash_config,"ax",%progbits
	.align	1
	.global	sub_msflash_config
	.thumb
	.thumb_func
	.type	sub_msflash_config, %function
sub_msflash_config:
.LFB50:
	.loc 2 525 0
	.cfi_startproc
	@ args = 0, pretend = 0, frame = 0
	@ frame_needed = 0, uses_anonymous_args = 0
	@ link register save eliminated.
	.loc 2 528 0
	ldr	r3, .L45	@ tmp137,
	ldr	r2, [r3, #0]	@ D.7788, 1073888256B->ACR
	orr	r2, r2, #4	@ D.7789, D.7788,
	str	r2, [r3, #0]	@ D.7789, 1073888256B->ACR
	.loc 2 531 0
	ldr	r2, [r3, #0]	@ D.7790, 1073888256B->ACR
	orr	r2, r2, #2	@ D.7791, D.7790,
	str	r2, [r3, #0]	@ D.7791, 1073888256B->ACR
	.loc 2 535 0
	bx	lr	@
.L46:
	.align	2
.L45:
	.word	1073888256
	.cfi_endproc
.LFE50:
	.size	sub_msflash_config, .-sub_msflash_config
	.section	.text.sub_hsflash_config,"ax",%progbits
	.align	1
	.global	sub_hsflash_config
	.thumb
	.thumb_func
	.type	sub_hsflash_config, %function
sub_hsflash_config:
.LFB51:
	.loc 2 537 0
	.cfi_startproc
	@ args = 0, pretend = 0, frame = 0
	@ frame_needed = 0, uses_anonymous_args = 0
	@ link register save eliminated.
	.loc 2 540 0
	ldr	r3, .L48	@ tmp137,
	ldr	r2, [r3, #0]	@ D.7783, 1073888256B->ACR
	orr	r2, r2, #4	@ D.7784, D.7783,
	str	r2, [r3, #0]	@ D.7784, 1073888256B->ACR
	.loc 2 546 0
	ldr	r2, [r3, #0]	@ D.7785, 1073888256B->ACR
	orr	r2, r2, #3	@ D.7786, D.7785,
	str	r2, [r3, #0]	@ D.7786, 1073888256B->ACR
	.loc 2 548 0
	bx	lr	@
.L49:
	.align	2
.L48:
	.word	1073888256
	.cfi_endproc
.LFE51:
	.size	sub_hsflash_config, .-sub_hsflash_config
	.section	.text.sub_voltage_config,"ax",%progbits
	.align	1
	.global	sub_voltage_config
	.thumb
	.thumb_func
	.type	sub_voltage_config, %function
sub_voltage_config:
.LFB52:
	.loc 2 551 0
	.cfi_startproc
	@ args = 0, pretend = 0, frame = 0
	@ frame_needed = 0, uses_anonymous_args = 0
	@ link register save eliminated.
	.loc 2 553 0
	ldr	r3, .L52	@ tmp137,
	ldr	r2, [r3, #36]	@ D.7777, 1073887232B->APB1ENR
	orr	r2, r2, #268435456	@ D.7778, D.7777,
	str	r2, [r3, #36]	@ D.7778, 1073887232B->APB1ENR
	.loc 2 557 0
	ldr	r3, .L52+4	@ tmp139,
	mov	r2, #4096	@ tmp140,
	str	r2, [r3, #0]	@ tmp140, 1073770496B->CR
.L51:
	.loc 2 565 0 discriminator 1
	ldr	r3, .L52+4	@ tmp141,
	ldr	r3, [r3, #4]	@ D.7780, 1073770496B->CSR
	tst	r3, #16	@ D.7780,
	bne	.L51	@,
	.loc 2 566 0
	bx	lr	@
.L53:
	.align	2
.L52:
	.word	1073887232
	.word	1073770496
	.cfi_endproc
.LFE52:
	.size	sub_voltage_config, .-sub_voltage_config
	.section	.text.sub_hsosc_config,"ax",%progbits
	.align	1
	.global	sub_hsosc_config
	.thumb
	.thumb_func
	.type	sub_hsosc_config, %function
sub_hsosc_config:
.LFB53:
	.loc 2 569 0
	.cfi_startproc
	@ args = 0, pretend = 0, frame = 0
	@ frame_needed = 0, uses_anonymous_args = 0
	@ link register save eliminated.
	.loc 2 589 0
	ldr	r3, .L56	@ tmp137,
	ldr	r2, [r3, #8]	@ D.7772, 1073887232B->CFGR
	orr	r2, r2, #1	@ D.7773, D.7772,
	str	r2, [r3, #8]	@ D.7773, 1073887232B->CFGR
.L55:
	.loc 2 590 0 discriminator 1
	ldr	r3, .L56	@ tmp139,
	ldr	r3, [r3, #8]	@ D.7774, 1073887232B->CFGR
	and	r3, r3, #12	@ tmp140, D.7774,
	cmp	r3, #8	@ tmp140,
	bne	.L55	@,
	.loc 2 594 0
	ldr	r3, .L56+4	@ tmp141,
	mov	r2, #16000	@ movhi	@,
	strh	r2, [r3, #172]	@ movhi	@, platform_ext.cpu_khz
	.loc 2 595 0
	bx	lr	@
.L57:
	.align	2
.L56:
	.word	1073887232
	.word	platform_ext
	.cfi_endproc
.LFE53:
	.size	sub_hsosc_config, .-sub_hsosc_config
	.section	.text.platform_init_busclk,"ax",%progbits
	.align	1
	.global	platform_init_busclk
	.thumb
	.thumb_func
	.type	platform_init_busclk, %function
platform_init_busclk:
.LFB54:
	.loc 2 600 0
	.cfi_startproc
	@ args = 0, pretend = 0, frame = 0
	@ frame_needed = 0, uses_anonymous_args = 0
	push	{r4, lr}	@
.LCFI4:
	.cfi_def_cfa_offset 8
	.loc 2 606 0
	ldr	r4, .L59	@ tmp146,
	.cfi_offset 14, -4
	.cfi_offset 4, -8
	ldr	r3, [r4, #0]	@ D.7757, 1073887232B->CR
	orr	r3, r3, #256	@ D.7758, D.7757,
	str	r3, [r4, #0]	@ D.7758, 1073887232B->CR
	.loc 2 607 0
	ldr	r2, [r4, #8]	@ D.7759, 1073887232B->CFGR
	ldr	r3, .L59+4	@ D.7760,
	and	r3, r2, r3	@ D.7760, D.7759, D.7760
	str	r3, [r4, #8]	@ D.7760, 1073887232B->CFGR
	.loc 2 609 0
	ldr	r2, [r4, #0]	@ D.7761, 1073887232B->CR
	ldr	r3, .L59+8	@ D.7762,
	and	r3, r2, r3	@ D.7762, D.7761, D.7762
	str	r3, [r4, #0]	@ D.7762, 1073887232B->CR
	.loc 2 610 0
	ldr	r3, [r4, #0]	@ D.7763, 1073887232B->CR
	.loc 2 632 0
	movw	r2, 4200	@ movhi	@,
	.loc 2 610 0
	bic	r3, r3, #262144	@ D.7764, D.7763,
	str	r3, [r4, #0]	@ D.7764, 1073887232B->CR
	.loc 2 611 0
	ldr	r3, [r4, #8]	@ D.7765, 1073887232B->CFGR
	bic	r3, r3, #16580608	@ D.7766, D.7765,
	str	r3, [r4, #8]	@ D.7766, 1073887232B->CFGR
	.loc 2 612 0
	movs	r3, #0	@ tmp159,
	str	r3, [r4, #12]	@ tmp159, 1073887232B->CIR
	.loc 2 632 0
	ldr	r3, .L59+12	@ tmp160,
	strh	r2, [r3, #172]	@ movhi	@, platform_ext.cpu_khz
	.loc 2 636 0
	bl	sub_msflash_config	@
	.loc 2 637 0
	bl	sub_voltage_config	@
	.loc 2 640 0
	ldr	r3, [r4, #8]	@ D.7767, 1073887232B->CFGR
	.loc 2 718 0
	mov	r2, #134217728	@ tmp168,
	.loc 2 640 0
	str	r3, [r4, #8]	@ D.7767, 1073887232B->CFGR
	.loc 2 644 0
	ldr	r3, [r4, #4]	@ D.7768, 1073887232B->ICSCR
	eor	r3, r3, #24576	@ D.7769, D.7768,
	str	r3, [r4, #4]	@ D.7769, 1073887232B->ICSCR
	.loc 2 718 0
	ldr	r3, .L59+16	@ tmp167,
	str	r2, [r3, #8]	@ tmp168, 3758157056B->VTOR
	.loc 2 720 0
	pop	{r4, pc}	@
.L60:
	.align	2
.L59:
	.word	1073887232
	.word	-1996505076
	.word	-285278210
	.word	platform_ext
	.word	-536810240
	.cfi_endproc
.LFE54:
	.size	platform_init_busclk, .-platform_init_busclk
	.section	.text.platform_init_periphclk,"ax",%progbits
	.align	1
	.global	platform_init_periphclk
	.thumb
	.thumb_func
	.type	platform_init_periphclk, %function
platform_init_periphclk:
.LFB55:
	.loc 2 726 0
	.cfi_startproc
	@ args = 0, pretend = 0, frame = 0
	@ frame_needed = 0, uses_anonymous_args = 0
	@ link register save eliminated.
	.loc 2 728 0
	bx	lr	@
	.cfi_endproc
.LFE55:
	.size	platform_init_periphclk, .-platform_init_periphclk
	.section	.text.platform_disable_interrupts,"ax",%progbits
	.align	1
	.global	platform_disable_interrupts
	.thumb
	.thumb_func
	.type	platform_disable_interrupts, %function
platform_disable_interrupts:
.LFB56:
	.loc 2 734 0
	.cfi_startproc
	@ args = 0, pretend = 0, frame = 0
	@ frame_needed = 0, uses_anonymous_args = 0
	@ link register save eliminated.
.LBB8:
.LBB9:
	.file 3 "B:\\otplatform\\stm32_mculib\\CMSIS\\CM3\\CoreSupport/core_cm3.h"
	.loc 3 1205 0
@ 1205 "B:\otplatform\stm32_mculib\CMSIS\CM3\CoreSupport/core_cm3.h" 1
	cpsid i
@ 0 "" 2
	.thumb
.LBE9:
.LBE8:
	.loc 2 736 0
	bx	lr	@
	.cfi_endproc
.LFE56:
	.size	platform_disable_interrupts, .-platform_disable_interrupts
	.section	.text.platform_enable_interrupts,"ax",%progbits
	.align	1
	.global	platform_enable_interrupts
	.thumb
	.thumb_func
	.type	platform_enable_interrupts, %function
platform_enable_interrupts:
.LFB57:
	.loc 2 741 0
	.cfi_startproc
	@ args = 0, pretend = 0, frame = 0
	@ frame_needed = 0, uses_anonymous_args = 0
	@ link register save eliminated.
.LBB12:
.LBB13:
	.loc 3 1204 0
@ 1204 "B:\otplatform\stm32_mculib\CMSIS\CM3\CoreSupport/core_cm3.h" 1
	cpsie i
@ 0 "" 2
	.thumb
.LBE13:
.LBE12:
	.loc 2 743 0
	bx	lr	@
	.cfi_endproc
.LFE57:
	.size	platform_enable_interrupts, .-platform_enable_interrupts
	.section	.text.platform_standard_speed,"ax",%progbits
	.align	1
	.global	platform_standard_speed
	.thumb
	.thumb_func
	.type	platform_standard_speed, %function
platform_standard_speed:
.LFB58:
	.loc 2 757 0
	.cfi_startproc
	@ args = 0, pretend = 0, frame = 0
	@ frame_needed = 0, uses_anonymous_args = 0
	@ link register save eliminated.
	.loc 2 763 0
	ldr	r3, .L69	@ tmp150,
	ldr	r2, [r3, #0]	@ D.7738, 1073887232B->CR
	tst	r2, #256	@ D.7738,
	bne	.L64	@,
.LBB14:
	.loc 2 767 0
	ldr	r2, [r3, #0]	@ D.7742, 1073887232B->CR
	orr	r2, r2, #256	@ D.7743, D.7742,
	str	r2, [r3, #0]	@ D.7743, 1073887232B->CR
.LVL6:
	.loc 2 768 0
	mov	r3, #300	@ counter,
.LVL7:
.L67:
	.loc 2 769 0 discriminator 1
	ldr	r2, .L69	@ tmp154,
	ldr	r2, [r2, #0]	@ D.7744, 1073887232B->CR
	tst	r2, #512	@ D.7744,
	bne	.L66	@,
	.loc 2 769 0 is_stmt 0 discriminator 2
	subs	r3, r3, #1	@ tmp156, counter,
.LVL8:
	uxth	r3, r3	@ counter, tmp156
.LVL9:
	cmp	r3, #0	@ counter
	bne	.L67	@
.LVL10:
.L66:
	.loc 2 773 0 is_stmt 1
	ldr	r3, .L69	@ tmp157,
	ldr	r2, [r3, #8]	@ D.7747, 1073887232B->CFGR
	bic	r2, r2, #3	@ D.7748, D.7747,
	str	r2, [r3, #8]	@ D.7748, 1073887232B->CFGR
.L68:
	.loc 2 774 0 discriminator 1
	ldr	r3, .L69	@ tmp159,
	ldr	r2, [r3, #8]	@ D.7749, 1073887232B->CFGR
	tst	r2, #12	@ D.7749,
	bne	.L68	@,
	.loc 2 777 0
	ldr	r1, [r3, #0]	@ D.7751, 1073887232B->CR
	ldr	r2, .L69+4	@ D.7752,
	and	r2, r1, r2	@ D.7752, D.7751, D.7752
	str	r2, [r3, #0]	@ D.7752, 1073887232B->CR
	.loc 2 785 0
	ldr	r3, .L69+8	@ tmp164,
	ldr	r2, [r3, #0]	@ D.7754, 1073888256B->ACR
	bic	r2, r2, #1	@ D.7755, D.7754,
	str	r2, [r3, #0]	@ D.7755, 1073888256B->ACR
	.loc 2 789 0
	ldr	r3, .L69+12	@ tmp166,
	movw	r2, 4200	@ movhi	@,
	strh	r2, [r3, #172]	@ movhi	@, platform_ext.cpu_khz
.L64:
	bx	lr	@
.L70:
	.align	2
.L69:
	.word	1073887232
	.word	-16842754
	.word	1073888256
	.word	platform_ext
.LBE14:
	.cfi_endproc
.LFE58:
	.size	platform_standard_speed, .-platform_standard_speed
	.section	.text.platform_full_speed,"ax",%progbits
	.align	1
	.global	platform_full_speed
	.thumb
	.thumb_func
	.type	platform_full_speed, %function
platform_full_speed:
.LFB59:
	.loc 2 794 0
	.cfi_startproc
	@ args = 0, pretend = 0, frame = 0
	@ frame_needed = 0, uses_anonymous_args = 0
	push	{r4, lr}	@
.LCFI5:
	.cfi_def_cfa_offset 8
	.loc 2 796 0
	ldr	r4, .L73	@ tmp139,
	.cfi_offset 14, -4
	.cfi_offset 4, -8
	ldr	r3, [r4, #0]	@ D.7728, 1073887232B->CR
	tst	r3, #256	@ D.7728,
	beq	.L71	@,
	.loc 2 803 0
	ldr	r3, .L73+4	@ tmp141,
	ldr	r2, [r3, #0]	@ D.7733, 1073888256B->ACR
	orr	r2, r2, #1	@ D.7734, D.7733,
	str	r2, [r3, #0]	@ D.7734, 1073888256B->ACR
	.loc 2 808 0
	bl	sub_hsosc_config	@
	.loc 2 811 0
	ldr	r3, [r4, #0]	@ D.7735, 1073887232B->CR
	bic	r3, r3, #256	@ D.7736, D.7735,
	str	r3, [r4, #0]	@ D.7736, 1073887232B->CR
.L71:
	pop	{r4, pc}	@
.L74:
	.align	2
.L73:
	.word	1073887232
	.word	1073888256
	.cfi_endproc
.LFE59:
	.size	platform_full_speed, .-platform_full_speed
	.section	.text.platform_flank_speed,"ax",%progbits
	.align	1
	.global	platform_flank_speed
	.thumb
	.thumb_func
	.type	platform_flank_speed, %function
platform_flank_speed:
.LFB60:
	.loc 2 815 0
	.cfi_startproc
	@ args = 0, pretend = 0, frame = 0
	@ frame_needed = 0, uses_anonymous_args = 0
	@ link register save eliminated.
	.loc 2 819 0
	.loc 2 818 0
	b	platform_full_speed	@
	.cfi_endproc
.LFE60:
	.size	platform_flank_speed, .-platform_flank_speed
	.section	.text.platform_save_context,"ax",%progbits
	.align	1
	.global	platform_save_context
	.thumb
	.thumb_func
	.type	platform_save_context, %function
platform_save_context:
.LFB61:
	.loc 2 831 0
	.cfi_startproc
	@ args = 0, pretend = 0, frame = 0
	@ frame_needed = 0, uses_anonymous_args = 0
	@ link register save eliminated.
	.loc 2 834 0
@ 834 "B:\otplatform\stm32l1xx\platform_STM32L1xx.c" 1
	   MRS    r0, psp	@ tsp
   STMDB  r0!, {r4-r11}	@ tsp
   MSR    psp, r0	@ tsp

@ 0 "" 2
.LVL11:
	.loc 2 841 0
	.thumb
	bx	lr	@
	.cfi_endproc
.LFE61:
	.size	platform_save_context, .-platform_save_context
	.section	.text.platform_load_context,"ax",%progbits
	.align	1
	.global	platform_load_context
	.thumb
	.thumb_func
	.type	platform_load_context, %function
platform_load_context:
.LFB62:
	.loc 2 845 0
	.cfi_startproc
	@ args = 0, pretend = 0, frame = 0
	@ frame_needed = 0, uses_anonymous_args = 0
	@ link register save eliminated.
.LVL12:
	.loc 2 848 0
@ 848 "B:\otplatform\stm32l1xx\platform_STM32L1xx.c" 1
	   MRS    r3, psp	@ scratch
   LDMFD  r3!, {r4-r11}	@ scratch
   MSR    psp, r3	@ scratch

@ 0 "" 2
	.loc 2 854 0
	.thumb
	bx	lr	@
	.cfi_endproc
.LFE62:
	.size	platform_load_context, .-platform_load_context
	.section	.text.platform_switch_context,"ax",%progbits
	.align	1
	.global	platform_switch_context
	.thumb
	.thumb_func
	.type	platform_switch_context, %function
platform_switch_context:
.LFB63:
	.loc 2 858 0
	.cfi_startproc
	@ args = 0, pretend = 0, frame = 0
	@ frame_needed = 0, uses_anonymous_args = 0
	@ link register save eliminated.
.LVL13:
	.loc 2 859 0
	bx	lr	@
	.cfi_endproc
.LFE63:
	.size	platform_switch_context, .-platform_switch_context
	.section	.text.platform_drop_context,"ax",%progbits
	.align	1
	.global	platform_drop_context
	.thumb
	.thumb_func
	.type	platform_drop_context, %function
platform_drop_context:
.LFB64:
	.loc 2 863 0
	.cfi_startproc
	@ args = 0, pretend = 0, frame = 0
	@ frame_needed = 0, uses_anonymous_args = 0
	@ link register save eliminated.
.LVL14:
	.loc 2 874 0
	ldr	r3, .L81	@ tmp139,
	ldr	r3, [r3, #164]	@ D.7719, platform_ext.task_exit
	cbz	r3, .L79	@ D.7719,
.LBB15:
	.loc 2 879 0
@ 879 "B:\otplatform\stm32l1xx\platform_STM32L1xx.c" 1
	MRS  r2, PSP	@ task_lr
@ 0 "" 2
.LVL15:
	.loc 2 880 0
	.thumb
	str	r3, [r2, #24]	@ D.7719,
.LVL16:
.L79:
	bx	lr	@
.L82:
	.align	2
.L81:
	.word	platform_ext
.LBE15:
	.cfi_endproc
.LFE64:
	.size	platform_drop_context, .-platform_drop_context
	.section	.text.platform_ot_preempt,"ax",%progbits
	.align	1
	.global	platform_ot_preempt
	.thumb
	.thumb_func
	.type	platform_ot_preempt, %function
platform_ot_preempt:
.LFB65:
	.loc 2 887 0
	.cfi_startproc
	@ args = 0, pretend = 0, frame = 0
	@ frame_needed = 0, uses_anonymous_args = 0
	@ link register save eliminated.
	.loc 2 893 0
	ldr	r3, .L85	@ tmp135,
	ldr	r3, [r3, #0]	@ D.7715, 1073808384B->IMR
	tst	r3, #32	@ D.7715,
	beq	.L83	@,
	.loc 2 894 0
@ 894 "B:\otplatform\stm32l1xx\platform_STM32L1xx.c" 1
	 svc  #0	@
@ 0 "" 2
	.thumb
.L83:
	bx	lr	@
.L86:
	.align	2
.L85:
	.word	1073808384
	.cfi_endproc
.LFE65:
	.size	platform_ot_preempt, .-platform_ot_preempt
	.section	.text.platform_ot_run,"ax",%progbits
	.align	1
	.global	platform_ot_run
	.thumb
	.thumb_func
	.type	platform_ot_run, %function
platform_ot_run:
.LFB66:
	.loc 2 909 0
	.cfi_startproc
	@ args = 0, pretend = 0, frame = 0
	@ frame_needed = 0, uses_anonymous_args = 0
.L88:
	push	{r4, lr}	@
.LCFI6:
	.cfi_def_cfa_offset 8
	.loc 2 920 0
	.cfi_offset 14, -4
	.cfi_offset 4, -8
	bl	__get_PSP	@
	ldr	r3, .L90	@ tmp139,
	str	r0, [r3, #164]	@, platform_ext.task_exit
	.loc 2 922 0
	ldr	r3, .L90+4	@ tmp140,
@ 922 "B:\otplatform\stm32l1xx\platform_STM32L1xx.c" 1
	PUSH {r3}	@ tmp140
@ 0 "" 2
	.loc 2 932 0
	.thumb
	ldr	r4, .L90	@ tmp141,
	.loc 2 926 0
	bl	sys_run_task	@
	.loc 2 932 0
	ldr	r0, [r4, #164]	@, platform_ext.task_exit
	bl	__set_PSP	@
	.loc 2 933 0
	movs	r3, #0	@ tmp143,
	str	r3, [r4, #164]	@ tmp143, platform_ext.task_exit
	.loc 2 939 0
@ 939 "B:\otplatform\stm32l1xx\platform_STM32L1xx.c" 1
	 svc  #0	@
@ 0 "" 2
	.loc 2 946 0
	.thumb
	ldrh	r3, [r4, #170]	@ platform_ext.next_evt, platform_ext.next_evt
	cbz	r3, .L87	@ platform_ext.next_evt,
	.loc 2 947 0
	bl	platform_disable_interrupts	@
	.loc 2 950 0
	pop	{r4, lr}	@
	.loc 2 948 0
	b	sys_powerdown	@
.L87:
	pop	{r4, pc}	@
.L91:
	.align	2
.L90:
	.word	platform_ext
	.word	.L88
	.cfi_endproc
.LFE66:
	.size	platform_ot_run, .-platform_ot_run
	.section	.text.platform_init_interruptor,"ax",%progbits
	.align	1
	.global	platform_init_interruptor
	.thumb
	.thumb_func
	.type	platform_init_interruptor, %function
platform_init_interruptor:
.LFB67:
	.loc 2 964 0
	.cfi_startproc
	@ args = 0, pretend = 0, frame = 0
	@ frame_needed = 0, uses_anonymous_args = 0
	@ link register save eliminated.
.LVL17:
.LBB18:
.LBB19:
	.loc 3 1473 0
	ldr	r3, .L93	@ tmp136,
	.loc 3 1474 0
	movw	r1, #63743	@ reg_value,
	.loc 3 1473 0
	ldr	r2, [r3, #12]	@ reg_value, 3758157056B->AIRCR
.LVL18:
	.loc 3 1474 0
	and	r1, r2, r1	@ reg_value, reg_value, reg_value
.LVL19:
	.loc 3 1475 0
	ldr	r2, .L93+4	@ reg_value,
	orr	r2, r1, r2	@ reg_value, reg_value, reg_value
.LVL20:
	.loc 3 1478 0
	str	r2, [r3, #12]	@ reg_value, 3758157056B->AIRCR
.LBE19:
.LBE18:
	.loc 2 1014 0
	movs	r2, #0	@ tmp141,
.LVL21:
	strb	r2, [r3, #31]	@ tmp141, 3758157056B->SHP
	.loc 2 1016 0
	adds	r2, r2, #240	@ tmp144, tmp144,
	strb	r2, [r3, #34]	@ tmp144, 3758157056B->SHP
	.loc 2 1017 0
	subs	r2, r2, #112	@ tmp147, tmp147,
	strb	r2, [r3, #35]	@ tmp147, 3758157056B->SHP
	.loc 2 1041 0
	ldr	r3, .L93+8	@ tmp149,
.LVL22:
	subs	r2, r2, #112	@ tmp150, tmp150,
	strb	r2, [r3, #791]	@ tmp150, 3758153984B->IP
	.loc 2 1042 0
	mov	r2, #8388608	@ tmp153,
	str	r2, [r3, #0]	@ tmp153, 3758153984B->ISER
	.loc 2 1071 0
	bx	lr	@
.L94:
	.align	2
.L93:
	.word	-536810240
	.word	100271616
	.word	-536813312
	.cfi_endproc
.LFE67:
	.size	platform_init_interruptor, .-platform_init_interruptor
	.section	.text.platform_init_gpio,"ax",%progbits
	.align	1
	.global	platform_init_gpio
	.thumb
	.thumb_func
	.type	platform_init_gpio, %function
platform_init_gpio:
.LFB68:
	.loc 2 1082 0
	.cfi_startproc
	@ args = 0, pretend = 0, frame = 0
	@ frame_needed = 0, uses_anonymous_args = 0
	@ link register save eliminated.
	.loc 2 1089 0
	.loc 2 1088 0
	b	BOARD_PORT_STARTUP	@
	.cfi_endproc
.LFE68:
	.size	platform_init_gpio, .-platform_init_gpio
	.section	.text.platform_init_gptim,"ax",%progbits
	.align	1
	.global	platform_init_gptim
	.thumb
	.thumb_func
	.type	platform_init_gptim, %function
platform_init_gptim:
.LFB69:
	.loc 2 1095 0
	.cfi_startproc
	@ args = 0, pretend = 0, frame = 0
	@ frame_needed = 0, uses_anonymous_args = 0
	@ link register save eliminated.
.LVL23:
	.loc 2 1123 0
	ldr	r3, .L97	@ tmp138,
	.loc 2 1126 0
	mov	r0, #16384	@ movhi	@,
.LVL24:
	.loc 2 1123 0
	ldr	r2, [r3, #8]	@ D.7697, 1073808384B->RTSR
	.loc 2 1134 0
	movs	r1, #16	@,
	.loc 2 1123 0
	orr	r2, r2, #96	@ D.7698, D.7697,
	str	r2, [r3, #8]	@ D.7698, 1073808384B->RTSR
	.loc 2 1126 0
	ldr	r3, .L97+4	@ tmp140,
	.loc 2 1127 0
	movs	r2, #0	@ tmp145,
	.loc 2 1126 0
	strh	r0, [r3, #8]	@ movhi	@, 1073809408B->SMCR
	.loc 2 1127 0
	strh	r2, [r3, #12]	@ movhi	@ tmp145, 1073809408B->DIER
	.loc 2 1137 0
	movs	r0, #31	@,
	.loc 2 1128 0
	strh	r2, [r3, #16]	@ movhi	@ tmp145, 1073809408B->SR
	.loc 2 1134 0
	strh	r1, [r3, #24]	@ movhi	@, 1073809408B->CCMR1
	.loc 2 1135 0
	movs	r1, #1	@ tmp154,
	strh	r1, [r3, #32]	@ movhi	@ tmp154, 1073809408B->CCER
	.loc 2 1137 0
	strh	r0, [r3, #40]	@ movhi	@, 1073809408B->PSC
	.loc 2 1138 0
	movw	r0, #65535	@ tmp159,
	str	r0, [r3, #44]	@ tmp159, 1073809408B->ARR
	.loc 2 1139 0
	strh	r2, [r3, #80]	@ movhi	@ tmp145, 1073809408B->OR
	.loc 2 1142 0
	strh	r1, [r3, #20]	@ movhi	@ tmp154, 1073809408B->EGR
	.loc 2 1143 0
	ldrh	r2, [r3, #0]	@, 1073809408B->CR1
	uxth	r2, r2	@ D.7700, 1073809408B->CR1
	orrs	r2, r2, r1	@, D.7701, D.7700,
	strh	r2, [r3, #0]	@ movhi	@ D.7701, 1073809408B->CR1
	.loc 2 1144 0
	bx	lr	@
.L98:
	.align	2
.L97:
	.word	1073808384
	.word	1073809408
	.cfi_endproc
.LFE69:
	.size	platform_init_gptim, .-platform_init_gptim
	.section	.text.platform_poweron,"ax",%progbits
	.align	1
	.global	platform_poweron
	.thumb
	.thumb_func
	.type	platform_poweron, %function
platform_poweron:
.LFB47:
	.loc 2 429 0
	.cfi_startproc
	@ args = 0, pretend = 0, frame = 0
	@ frame_needed = 0, uses_anonymous_args = 0
	push	{r4, lr}	@
.LCFI7:
	.cfi_def_cfa_offset 8
	.loc 2 432 0
	.cfi_offset 14, -4
	.cfi_offset 4, -8
	bl	__get_MSP	@
	bl	__set_PSP	@
	.loc 2 433 0
	movs	r0, #2	@,
	bl	__set_CONTROL	@
	.loc 2 434 0
	ldr	r0, .L100	@,
	bl	__set_MSP	@
	.loc 2 437 0
	bl	platform_init_busclk	@
	.loc 2 438 0
	bl	platform_init_perihclk	@
	.loc 2 441 0
	bl	BOARD_PERIPH_INIT	@
	.loc 2 446 0
	ldr	r3, .L100+4	@ tmp141,
	ldr	r2, [r3, #4]	@ D.7799, 3758366720B->CR
	orr	r2, r2, #7	@ D.7800, D.7799,
	str	r2, [r3, #4]	@ D.7800, 3758366720B->CR
	.loc 2 450 0
	ldr	r2, [r3, #8]	@ D.7801, 3758366720B->APB1FZ
	orr	r2, r2, #7168	@ D.7802, D.7801,
	str	r2, [r3, #8]	@ D.7802, 3758366720B->APB1FZ
	.loc 2 454 0
	ldr	r2, [r3, #12]	@ D.7803, 3758366720B->APB2FZ
	orr	r2, r2, #28	@ D.7804, D.7803,
	str	r2, [r3, #12]	@ D.7804, 3758366720B->APB2FZ
	.loc 2 460 0
	bl	platform_init_gpio	@
	.loc 2 461 0
	bl	platform_init_interruptor	@
	.loc 2 462 0
	movs	r0, #0	@,
	bl	platform_init_gptim	@
	.loc 2 467 0
	pop	{r4, lr}	@
	.loc 2 466 0
	b	vworm_init	@
.L101:
	.align	2
.L100:
	.word	platform_ext
	.word	-536600576
	.cfi_endproc
.LFE47:
	.size	platform_poweron, .-platform_poweron
	.section	.text.platform_init_watchdog,"ax",%progbits
	.align	1
	.global	platform_init_watchdog
	.thumb
	.thumb_func
	.type	platform_init_watchdog, %function
platform_init_watchdog:
.LFB70:
	.loc 2 1149 0
	.cfi_startproc
	@ args = 0, pretend = 0, frame = 0
	@ frame_needed = 0, uses_anonymous_args = 0
	@ link register save eliminated.
	.loc 2 1153 0
	bx	lr	@
	.cfi_endproc
.LFE70:
	.size	platform_init_watchdog, .-platform_init_watchdog
	.section	.text.platform_init_resetswitch,"ax",%progbits
	.align	1
	.global	platform_init_resetswitch
	.thumb
	.thumb_func
	.type	platform_init_resetswitch, %function
platform_init_resetswitch:
.LFB71:
	.loc 2 1158 0
	.cfi_startproc
	@ args = 0, pretend = 0, frame = 0
	@ frame_needed = 0, uses_anonymous_args = 0
	@ link register save eliminated.
	.loc 2 1160 0
	bx	lr	@
	.cfi_endproc
.LFE71:
	.size	platform_init_resetswitch, .-platform_init_resetswitch
	.section	.text.platform_init_systick,"ax",%progbits
	.align	1
	.global	platform_init_systick
	.thumb
	.thumb_func
	.type	platform_init_systick, %function
platform_init_systick:
.LFB72:
	.loc 2 1165 0
	.cfi_startproc
	@ args = 0, pretend = 0, frame = 0
	@ frame_needed = 0, uses_anonymous_args = 0
	@ link register save eliminated.
.LVL25:
	.loc 2 1171 0
	ldr	r3, .L105	@ tmp134,
	movs	r2, #0	@ tmp135,
	str	r2, [r3, #8]	@ tmp135, 3758153744B->VAL
	.loc 2 1172 0
	adds	r2, r2, #7	@ tmp137, tmp137,
	str	r2, [r3, #0]	@ tmp137, 3758153744B->CTRL
	.loc 2 1176 0
	bx	lr	@
.L106:
	.align	2
.L105:
	.word	-536813552
	.cfi_endproc
.LFE72:
	.size	platform_init_systick, .-platform_init_systick
	.section	.text.platform_init_rtc,"ax",%progbits
	.align	1
	.global	platform_init_rtc
	.thumb
	.thumb_func
	.type	platform_init_rtc, %function
platform_init_rtc:
.LFB73:
	.loc 2 1181 0
	.cfi_startproc
	@ args = 0, pretend = 0, frame = 0
	@ frame_needed = 0, uses_anonymous_args = 0
	@ link register save eliminated.
.LVL26:
	.loc 2 1213 0
	bx	lr	@
	.cfi_endproc
.LFE73:
	.size	platform_init_rtc, .-platform_init_rtc
	.section	.text.platform_init_memcpy,"ax",%progbits
	.align	1
	.global	platform_init_memcpy
	.thumb
	.thumb_func
	.type	platform_init_memcpy, %function
platform_init_memcpy:
.LFB74:
	.loc 2 1217 0
	.cfi_startproc
	@ args = 0, pretend = 0, frame = 0
	@ frame_needed = 0, uses_anonymous_args = 0
	@ link register save eliminated.
	.loc 2 1220 0
	bx	lr	@
	.cfi_endproc
.LFE74:
	.size	platform_init_memcpy, .-platform_init_memcpy
	.section	.text.platform_get_ktim,"ax",%progbits
	.align	1
	.global	platform_get_ktim
	.thumb
	.thumb_func
	.type	platform_get_ktim, %function
platform_get_ktim:
.LFB75:
	.loc 2 1231 0
	.cfi_startproc
	@ args = 0, pretend = 0, frame = 0
	@ frame_needed = 0, uses_anonymous_args = 0
	@ link register save eliminated.
	.loc 2 1232 0
	ldr	r3, .L110	@ tmp138,
	ldr	r0, [r3, #36]	@ D.7689, 1073809408B->CNT
	ldr	r3, .L110+4	@ tmp140,
	ldrh	r3, [r3, #168]	@, platform_ext.last_evt
	subs	r0, r0, r3	@ tmp143, D.7689, platform_ext.last_evt
	.loc 2 1233 0
	uxth	r0, r0	@, tmp143
	bx	lr	@
.L111:
	.align	2
.L110:
	.word	1073809408
	.word	platform_ext
	.cfi_endproc
.LFE75:
	.size	platform_get_ktim, .-platform_get_ktim
	.section	.text.platform_next_ktim,"ax",%progbits
	.align	1
	.global	platform_next_ktim
	.thumb
	.thumb_func
	.type	platform_next_ktim, %function
platform_next_ktim:
.LFB76:
	.loc 2 1235 0
	.cfi_startproc
	@ args = 0, pretend = 0, frame = 0
	@ frame_needed = 0, uses_anonymous_args = 0
	@ link register save eliminated.
	.loc 2 1236 0
	ldr	r3, .L113	@ tmp139,
	ldr	r0, [r3, #52]	@ D.7682, 1073809408B->CCR1
	ldr	r3, [r3, #36]	@ D.7684, 1073809408B->CNT
	subs	r0, r0, r3	@ tmp144, D.7682, D.7684
	.loc 2 1237 0
	uxth	r0, r0	@, tmp144
	bx	lr	@
.L114:
	.align	2
.L113:
	.word	1073809408
	.cfi_endproc
.LFE76:
	.size	platform_next_ktim, .-platform_next_ktim
	.section	.text.platform_enable_ktim,"ax",%progbits
	.align	1
	.global	platform_enable_ktim
	.thumb
	.thumb_func
	.type	platform_enable_ktim, %function
platform_enable_ktim:
.LFB77:
	.loc 2 1239 0
	.cfi_startproc
	@ args = 0, pretend = 0, frame = 0
	@ frame_needed = 0, uses_anonymous_args = 0
	@ link register save eliminated.
	.loc 2 1240 0
	ldr	r3, .L116	@ tmp135,
	ldr	r2, [r3, #0]	@ D.7678, 1073808384B->IMR
	orr	r2, r2, #32	@ D.7679, D.7678,
	str	r2, [r3, #0]	@ D.7679, 1073808384B->IMR
	.loc 2 1241 0
	bx	lr	@
.L117:
	.align	2
.L116:
	.word	1073808384
	.cfi_endproc
.LFE77:
	.size	platform_enable_ktim, .-platform_enable_ktim
	.section	.text.platform_disable_ktim,"ax",%progbits
	.align	1
	.global	platform_disable_ktim
	.thumb
	.thumb_func
	.type	platform_disable_ktim, %function
platform_disable_ktim:
.LFB78:
	.loc 2 1243 0
	.cfi_startproc
	@ args = 0, pretend = 0, frame = 0
	@ frame_needed = 0, uses_anonymous_args = 0
	@ link register save eliminated.
	.loc 2 1244 0
	ldr	r3, .L119	@ tmp135,
	ldr	r2, [r3, #0]	@ D.7675, 1073808384B->IMR
	bic	r2, r2, #32	@ D.7676, D.7675,
	str	r2, [r3, #0]	@ D.7676, 1073808384B->IMR
	.loc 2 1245 0
	bx	lr	@
.L120:
	.align	2
.L119:
	.word	1073808384
	.cfi_endproc
.LFE78:
	.size	platform_disable_ktim, .-platform_disable_ktim
	.section	.text.platform_pend_ktim,"ax",%progbits
	.align	1
	.global	platform_pend_ktim
	.thumb
	.thumb_func
	.type	platform_pend_ktim, %function
platform_pend_ktim:
.LFB79:
	.loc 2 1247 0
	.cfi_startproc
	@ args = 0, pretend = 0, frame = 0
	@ frame_needed = 0, uses_anonymous_args = 0
	@ link register save eliminated.
	.loc 2 1248 0
	ldr	r3, .L122	@ tmp135,
	ldr	r2, [r3, #16]	@ D.7672, 1073808384B->SWIER
	orr	r2, r2, #32	@ D.7673, D.7672,
	str	r2, [r3, #16]	@ D.7673, 1073808384B->SWIER
	.loc 2 1249 0
	bx	lr	@
.L123:
	.align	2
.L122:
	.word	1073808384
	.cfi_endproc
.LFE79:
	.size	platform_pend_ktim, .-platform_pend_ktim
	.section	.text.platform_flush_ktim,"ax",%progbits
	.align	1
	.global	platform_flush_ktim
	.thumb
	.thumb_func
	.type	platform_flush_ktim, %function
platform_flush_ktim:
.LFB80:
	.loc 2 1251 0
	.cfi_startproc
	@ args = 0, pretend = 0, frame = 0
	@ frame_needed = 0, uses_anonymous_args = 0
	@ link register save eliminated.
	.loc 2 1252 0
	ldr	r3, .L125	@ tmp137,
	ldr	r2, [r3, #36]	@ D.7666, 1073809408B->CNT
	ldr	r3, .L125+4	@ tmp138,
	strh	r2, [r3, #168]	@ movhi	@ D.7666, platform_ext.last_evt
	.loc 2 1253 0
	ldr	r3, .L125+8	@ tmp140,
	ldr	r2, [r3, #0]	@ D.7669, 1073808384B->IMR
	bic	r2, r2, #32	@ D.7670, D.7669,
	str	r2, [r3, #0]	@ D.7670, 1073808384B->IMR
	.loc 2 1254 0
	bx	lr	@
.L126:
	.align	2
.L125:
	.word	1073809408
	.word	platform_ext
	.word	1073808384
	.cfi_endproc
.LFE80:
	.size	platform_flush_ktim, .-platform_flush_ktim
	.section	.text.platform_set_ktim,"ax",%progbits
	.align	1
	.global	platform_set_ktim
	.thumb
	.thumb_func
	.type	platform_set_ktim, %function
platform_set_ktim:
.LFB81:
	.loc 2 1256 0
	.cfi_startproc
	@ args = 0, pretend = 0, frame = 0
	@ frame_needed = 0, uses_anonymous_args = 0
	@ link register save eliminated.
.LVL27:
	.loc 2 1260 0
	ldr	r3, .L128	@ tmp140,
	ldr	r1, .L128+4	@ tmp141,
	ldr	r2, [r3, #36]	@ D.7658, 1073809408B->CNT
	uxth	r2, r2	@ D.7659, D.7658
	strh	r2, [r1, #168]	@ movhi	@ D.7659, platform_ext.last_evt
	.loc 2 1261 0
	adds	r2, r0, r2	@ D.7664, value, D.7659
	str	r2, [r3, #52]	@ D.7664, 1073809408B->CCR1
	.loc 2 1262 0
	bx	lr	@
.L129:
	.align	2
.L128:
	.word	1073809408
	.word	platform_ext
	.cfi_endproc
.LFE81:
	.size	platform_set_ktim, .-platform_set_ktim
	.section	.text.platform_set_gptim2,"ax",%progbits
	.align	1
	.global	platform_set_gptim2
	.thumb
	.thumb_func
	.type	platform_set_gptim2, %function
platform_set_gptim2:
.LFB82:
	.loc 2 1264 0
	.cfi_startproc
	@ args = 0, pretend = 0, frame = 0
	@ frame_needed = 0, uses_anonymous_args = 0
	@ link register save eliminated.
.LVL28:
	.loc 2 1266 0
	ldr	r3, .L133	@ tmp140,
	ldr	r2, [r3, #36]	@ D.7647, 1073809408B->CNT
	adds	r2, r0, r2	@ D.7649, value, D.7647
	str	r2, [r3, #56]	@ D.7649, 1073809408B->CCR2
	.loc 2 1267 0
	ldr	r3, .L133+4	@ tmp142,
	cmp	r0, #0	@ value,
	ite	ne	@
	movne	r0, #1	@, iftmp.13,
	moveq	r0, #2	@, iftmp.13,
.LVL29:
	ldr	r2, [r3, #16]	@ D.7651, 1073808384B->SWIER
	orrs	r0, r0, r2	@, D.7656, iftmp.13, D.7651
	str	r0, [r3, #16]	@ D.7656, 1073808384B->SWIER
	.loc 2 1268 0
	bx	lr	@
.L134:
	.align	2
.L133:
	.word	1073809408
	.word	1073808384
	.cfi_endproc
.LFE82:
	.size	platform_set_gptim2, .-platform_set_gptim2
	.section	.text.platform_get_gptim,"ax",%progbits
	.align	1
	.global	platform_get_gptim
	.thumb
	.thumb_func
	.type	platform_get_gptim, %function
platform_get_gptim:
.LFB83:
	.loc 2 1270 0
	.cfi_startproc
	@ args = 0, pretend = 0, frame = 0
	@ frame_needed = 0, uses_anonymous_args = 0
	@ link register save eliminated.
	.loc 2 1271 0
	ldr	r3, .L136	@ tmp136,
	ldr	r0, [r3, #36]	@ D.7644, 1073809408B->CNT
	.loc 2 1272 0
	uxth	r0, r0	@, D.7644
	bx	lr	@
.L137:
	.align	2
.L136:
	.word	1073809408
	.cfi_endproc
.LFE83:
	.size	platform_get_gptim, .-platform_get_gptim
	.section	.text.platform_set_watchdog,"ax",%progbits
	.align	1
	.global	platform_set_watchdog
	.thumb
	.thumb_func
	.type	platform_set_watchdog, %function
platform_set_watchdog:
.LFB84:
	.loc 2 1277 0
	.cfi_startproc
	@ args = 0, pretend = 0, frame = 0
	@ frame_needed = 0, uses_anonymous_args = 0
	@ link register save eliminated.
.LVL30:
	.loc 2 1301 0
	bx	lr	@
	.cfi_endproc
.LFE84:
	.size	platform_set_watchdog, .-platform_set_watchdog
	.section	.text.platform_kill_watchdog,"ax",%progbits
	.align	1
	.global	platform_kill_watchdog
	.thumb
	.thumb_func
	.type	platform_kill_watchdog, %function
platform_kill_watchdog:
.LFB85:
	.loc 2 1303 0
	.cfi_startproc
	@ args = 0, pretend = 0, frame = 0
	@ frame_needed = 0, uses_anonymous_args = 0
	@ link register save eliminated.
	.loc 2 1305 0
	bx	lr	@
	.cfi_endproc
.LFE85:
	.size	platform_kill_watchdog, .-platform_kill_watchdog
	.section	.text.platform_pause_watchdog,"ax",%progbits
	.align	1
	.global	platform_pause_watchdog
	.thumb
	.thumb_func
	.type	platform_pause_watchdog, %function
platform_pause_watchdog:
.LFB86:
	.loc 2 1307 0
	.cfi_startproc
	@ args = 0, pretend = 0, frame = 0
	@ frame_needed = 0, uses_anonymous_args = 0
	@ link register save eliminated.
	.loc 2 1309 0
	bx	lr	@
	.cfi_endproc
.LFE86:
	.size	platform_pause_watchdog, .-platform_pause_watchdog
	.section	.text.platform_resume_watchdog,"ax",%progbits
	.align	1
	.global	platform_resume_watchdog
	.thumb
	.thumb_func
	.type	platform_resume_watchdog, %function
platform_resume_watchdog:
.LFB87:
	.loc 2 1311 0
	.cfi_startproc
	@ args = 0, pretend = 0, frame = 0
	@ frame_needed = 0, uses_anonymous_args = 0
	@ link register save eliminated.
	.loc 2 1317 0
	bx	lr	@
	.cfi_endproc
.LFE87:
	.size	platform_resume_watchdog, .-platform_resume_watchdog
	.section	.text.platform_enable_rtc,"ax",%progbits
	.align	1
	.global	platform_enable_rtc
	.thumb
	.thumb_func
	.type	platform_enable_rtc, %function
platform_enable_rtc:
.LFB88:
	.loc 2 1323 0
	.cfi_startproc
	@ args = 0, pretend = 0, frame = 0
	@ frame_needed = 0, uses_anonymous_args = 0
	@ link register save eliminated.
	.loc 2 1331 0
	bx	lr	@
	.cfi_endproc
.LFE88:
	.size	platform_enable_rtc, .-platform_enable_rtc
	.section	.text.platform_disable_rtc,"ax",%progbits
	.align	1
	.global	platform_disable_rtc
	.thumb
	.thumb_func
	.type	platform_disable_rtc, %function
platform_disable_rtc:
.LFB89:
	.loc 2 1336 0
	.cfi_startproc
	@ args = 0, pretend = 0, frame = 0
	@ frame_needed = 0, uses_anonymous_args = 0
	@ link register save eliminated.
	.loc 2 1343 0
	bx	lr	@
	.cfi_endproc
.LFE89:
	.size	platform_disable_rtc, .-platform_disable_rtc
	.section	.text.platform_set_time,"ax",%progbits
	.align	1
	.global	platform_set_time
	.thumb
	.thumb_func
	.type	platform_set_time, %function
platform_set_time:
.LFB90:
	.loc 2 1348 0
	.cfi_startproc
	@ args = 0, pretend = 0, frame = 0
	@ frame_needed = 0, uses_anonymous_args = 0
	@ link register save eliminated.
.LVL31:
	.loc 2 1351 0
	ldr	r3, .L145	@ tmp134,
	str	r0, [r3, #160]	@ utc_time, platform_ext.utc
	.loc 2 1356 0
	bx	lr	@
.L146:
	.align	2
.L145:
	.word	platform_ext
	.cfi_endproc
.LFE90:
	.size	platform_set_time, .-platform_set_time
	.section	.text.platform_get_time,"ax",%progbits
	.align	1
	.global	platform_get_time
	.thumb
	.thumb_func
	.type	platform_get_time, %function
platform_get_time:
.LFB91:
	.loc 2 1361 0
	.cfi_startproc
	@ args = 0, pretend = 0, frame = 0
	@ frame_needed = 0, uses_anonymous_args = 0
	@ link register save eliminated.
	.loc 2 1366 0
	bx	lr	@
	.cfi_endproc
.LFE91:
	.size	platform_get_time, .-platform_get_time
	.section	.text.platform_set_rtc_alarm,"ax",%progbits
	.align	1
	.global	platform_set_rtc_alarm
	.thumb
	.thumb_func
	.type	platform_set_rtc_alarm, %function
platform_set_rtc_alarm:
.LFB92:
	.loc 2 1371 0
	.cfi_startproc
	@ args = 0, pretend = 0, frame = 0
	@ frame_needed = 0, uses_anonymous_args = 0
	@ link register save eliminated.
.LVL32:
	.loc 2 1405 0
	bx	lr	@
	.cfi_endproc
.LFE92:
	.size	platform_set_rtc_alarm, .-platform_set_rtc_alarm
	.section	.text.platform_trig1_high,"ax",%progbits
	.align	1
	.global	platform_trig1_high
	.thumb
	.thumb_func
	.type	platform_trig1_high, %function
platform_trig1_high:
.LFB93:
	.loc 2 1421 0
	.cfi_startproc
	@ args = 0, pretend = 0, frame = 0
	@ frame_needed = 0, uses_anonymous_args = 0
	@ link register save eliminated.
	.loc 2 1421 0
	ldr	r3, .L150	@ tmp135,
	ldr	r2, [r3, #0]	@ D.7640, 1073875968B->MODER
	orr	r2, r2, #2	@ D.7641, D.7640,
	str	r2, [r3, #0]	@ D.7641, 1073875968B->MODER
	bx	lr	@
.L151:
	.align	2
.L150:
	.word	1073875968
	.cfi_endproc
.LFE93:
	.size	platform_trig1_high, .-platform_trig1_high
	.section	.text.platform_trig1_low,"ax",%progbits
	.align	1
	.global	platform_trig1_low
	.thumb
	.thumb_func
	.type	platform_trig1_low, %function
platform_trig1_low:
.LFB94:
	.loc 2 1422 0
	.cfi_startproc
	@ args = 0, pretend = 0, frame = 0
	@ frame_needed = 0, uses_anonymous_args = 0
	@ link register save eliminated.
	.loc 2 1422 0
	ldr	r3, .L153	@ tmp135,
	ldr	r2, [r3, #0]	@ D.7637, 1073875968B->MODER
	bic	r2, r2, #2	@ D.7638, D.7637,
	str	r2, [r3, #0]	@ D.7638, 1073875968B->MODER
	bx	lr	@
.L154:
	.align	2
.L153:
	.word	1073875968
	.cfi_endproc
.LFE94:
	.size	platform_trig1_low, .-platform_trig1_low
	.section	.text.platform_trig1_toggle,"ax",%progbits
	.align	1
	.global	platform_trig1_toggle
	.thumb
	.thumb_func
	.type	platform_trig1_toggle, %function
platform_trig1_toggle:
.LFB95:
	.loc 2 1423 0
	.cfi_startproc
	@ args = 0, pretend = 0, frame = 0
	@ frame_needed = 0, uses_anonymous_args = 0
	@ link register save eliminated.
	.loc 2 1423 0
	b	OT_TRIG1_TOG	@
	.cfi_endproc
.LFE95:
	.size	platform_trig1_toggle, .-platform_trig1_toggle
	.section	.text.platform_trig2_high,"ax",%progbits
	.align	1
	.global	platform_trig2_high
	.thumb
	.thumb_func
	.type	platform_trig2_high, %function
platform_trig2_high:
.LFB96:
	.loc 2 1431 0
	.cfi_startproc
	@ args = 0, pretend = 0, frame = 0
	@ frame_needed = 0, uses_anonymous_args = 0
	@ link register save eliminated.
	.loc 2 1431 0
	ldr	r3, .L157	@ tmp135,
	ldr	r2, [r3, #0]	@ D.7634, 1073875968B->MODER
	orr	r2, r2, #4	@ D.7635, D.7634,
	str	r2, [r3, #0]	@ D.7635, 1073875968B->MODER
	bx	lr	@
.L158:
	.align	2
.L157:
	.word	1073875968
	.cfi_endproc
.LFE96:
	.size	platform_trig2_high, .-platform_trig2_high
	.section	.text.platform_trig2_low,"ax",%progbits
	.align	1
	.global	platform_trig2_low
	.thumb
	.thumb_func
	.type	platform_trig2_low, %function
platform_trig2_low:
.LFB97:
	.loc 2 1432 0
	.cfi_startproc
	@ args = 0, pretend = 0, frame = 0
	@ frame_needed = 0, uses_anonymous_args = 0
	@ link register save eliminated.
	.loc 2 1432 0
	ldr	r3, .L160	@ tmp135,
	ldr	r2, [r3, #0]	@ D.7631, 1073875968B->MODER
	bic	r2, r2, #4	@ D.7632, D.7631,
	str	r2, [r3, #0]	@ D.7632, 1073875968B->MODER
	bx	lr	@
.L161:
	.align	2
.L160:
	.word	1073875968
	.cfi_endproc
.LFE97:
	.size	platform_trig2_low, .-platform_trig2_low
	.section	.text.platform_trig2_toggle,"ax",%progbits
	.align	1
	.global	platform_trig2_toggle
	.thumb
	.thumb_func
	.type	platform_trig2_toggle, %function
platform_trig2_toggle:
.LFB98:
	.loc 2 1433 0
	.cfi_startproc
	@ args = 0, pretend = 0, frame = 0
	@ frame_needed = 0, uses_anonymous_args = 0
	@ link register save eliminated.
	.loc 2 1433 0
	ldr	r3, .L163	@ tmp135,
	ldr	r2, [r3, #0]	@ D.7628, 1073875968B->MODER
	eor	r2, r2, #4	@ D.7629, D.7628,
	str	r2, [r3, #0]	@ D.7629, 1073875968B->MODER
	bx	lr	@
.L164:
	.align	2
.L163:
	.word	1073875968
	.cfi_endproc
.LFE98:
	.size	platform_trig2_toggle, .-platform_trig2_toggle
	.section	.text.platform_rand,"ax",%progbits
	.align	1
	.global	platform_rand
	.thumb
	.thumb_func
	.type	platform_rand, %function
platform_rand:
.LFB99:
	.loc 2 1456 0
	.cfi_startproc
	@ args = 0, pretend = 0, frame = 0
	@ frame_needed = 0, uses_anonymous_args = 0
	@ link register save eliminated.
.LVL33:
	.loc 2 1537 0
	bx	lr	@
	.cfi_endproc
.LFE99:
	.size	platform_rand, .-platform_rand
	.section	.text.platform_init_prand,"ax",%progbits
	.align	1
	.global	platform_init_prand
	.thumb
	.thumb_func
	.type	platform_init_prand, %function
platform_init_prand:
.LFB100:
	.loc 2 1542 0
	.cfi_startproc
	@ args = 0, pretend = 0, frame = 0
	@ frame_needed = 0, uses_anonymous_args = 0
	@ link register save eliminated.
.LVL34:
	.loc 2 1543 0
	ldr	r3, .L167	@ tmp134,
	strh	r0, [r3, #174]	@ movhi	@ seed, platform_ext.prand_reg
	.loc 2 1544 0
	bx	lr	@
.L168:
	.align	2
.L167:
	.word	platform_ext
	.cfi_endproc
.LFE100:
	.size	platform_init_prand, .-platform_init_prand
	.section	.text.platform_prand_u16,"ax",%progbits
	.align	1
	.global	platform_prand_u16
	.thumb
	.thumb_func
	.type	platform_prand_u16, %function
platform_prand_u16:
.LFB102:
	.loc 2 1554 0
	.cfi_startproc
	@ args = 0, pretend = 0, frame = 8
	@ frame_needed = 0, uses_anonymous_args = 0
	push	{r0, r1, r2, lr}	@
.LCFI8:
	.cfi_def_cfa_offset 16
	.loc 2 1556 0
	ldr	r3, .L170	@ tmp139,
	add	r0, sp, #8	@ tmp141,,
	.cfi_offset 14, -4
	.cfi_offset 2, -8
	.cfi_offset 1, -12
	.cfi_offset 0, -16
	ldr	r3, [r3, #36]	@ D.7618, 1073809408B->CNT
	.loc 2 1558 0
	movs	r1, #1	@,
	.loc 2 1556 0
	strh	r3, [r0, #-2]!	@ movhi	@ D.7618, timer_value
.LVL35:
	.loc 2 1558 0
	bl	platform_crc_block	@
	.loc 2 1559 0
	uxth	r0, r0	@,
	pop	{r1, r2, r3, pc}
.L171:
	.align	2
.L170:
	.word	1073809408
	.cfi_endproc
.LFE102:
	.size	platform_prand_u16, .-platform_prand_u16
	.section	.text.platform_prand_u8,"ax",%progbits
	.align	1
	.global	platform_prand_u8
	.thumb
	.thumb_func
	.type	platform_prand_u8, %function
platform_prand_u8:
.LFB101:
	.loc 2 1548 0
	.cfi_startproc
	@ args = 0, pretend = 0, frame = 0
	@ frame_needed = 0, uses_anonymous_args = 0
	push	{r3, lr}	@
.LCFI9:
	.cfi_def_cfa_offset 8
	.loc 2 1549 0
	.cfi_offset 14, -4
	.cfi_offset 3, -8
	bl	platform_prand_u16	@
	.loc 2 1550 0
	uxtb	r0, r0	@,
	pop	{r3, pc}	@
	.cfi_endproc
.LFE101:
	.size	platform_prand_u8, .-platform_prand_u8
	.section	.text.sub_memcpy_dma,"ax",%progbits
	.align	1
	.global	sub_memcpy_dma
	.thumb
	.thumb_func
	.type	sub_memcpy_dma, %function
sub_memcpy_dma:
.LFB103:
	.loc 2 1594 0
	.cfi_startproc
	@ args = 0, pretend = 0, frame = 0
	@ frame_needed = 0, uses_anonymous_args = 0
.LVL36:
	.loc 2 1601 0
	ldr	r3, .L175	@ tmp157,
	.loc 2 1594 0
	push	{r4, lr}	@
.LCFI10:
	.cfi_def_cfa_offset 8
	.loc 2 1601 0
	mov	r4, #65536	@ tmp158,
	.cfi_offset 14, -4
	.cfi_offset 4, -8
	str	r4, [r3, #4]	@ tmp158, 1073897472B->IFCR
	.loc 2 1602 0
	str	r0, [r3, #96]	@ dest, 1073897560B->CPAR
	.loc 2 1603 0
	str	r1, [r3, #100]	@ src, 1073897560B->CMAR
	.loc 2 1599 0
	orrs	r1, r1, r2	@, tmp163, src, length
.LVL37:
	orr	r0, r1, r0	@ tmp166, tmp163, dest
.LVL38:
	.loc 2 1604 0
	ldr	r4, .L175+4	@ tmp169,
	and	r0, r0, #3	@ D.7608, tmp166,
	ldrh	r1, [r4, r0, lsl #1]	@ tmp170, len_div
	.loc 2 1605 0
	add	r0, r4, r0, lsl #1	@, tmp173, tmp169, D.7608,
	.loc 2 1604 0
	asrs	r2, r2, r1	@ D.7612, length, tmp170
.LVL39:
	str	r2, [r3, #92]	@ D.7612, 1073897560B->CNDTR
	.loc 2 1605 0
	ldrh	r2, [r0, #8]	@ D.7614, ccr
	str	r2, [r3, #88]	@ D.7614, 1073897560B->CCR
.LVL40:
.L174:
	.loc 2 1607 0 discriminator 1
	ldr	r3, .L175	@ tmp176,
.LVL41:
	ldr	r3, [r3, #0]	@ D.7615, 1073897472B->ISR
.LVL42:
	tst	r3, #65536	@ D.7615,
	beq	.L174	@,
	.loc 2 1608 0
	pop	{r4, pc}	@
.L176:
	.align	2
.L175:
	.word	1073897472
	.word	.LANCHOR0
	.cfi_endproc
.LFE103:
	.size	sub_memcpy_dma, .-sub_memcpy_dma
	.section	.text.sub_memcpy2_dma,"ax",%progbits
	.align	1
	.global	sub_memcpy2_dma
	.thumb
	.thumb_func
	.type	sub_memcpy2_dma, %function
sub_memcpy2_dma:
.LFB104:
	.loc 2 1610 0
	.cfi_startproc
	@ args = 0, pretend = 0, frame = 0
	@ frame_needed = 0, uses_anonymous_args = 0
.LVL43:
	.loc 2 1615 0
	orr	r3, r1, r0	@ tmp147, src, dest
	orrs	r3, r3, r2	@, tmp148, tmp147, length
	tst	r3, #3	@ tmp148,
	.loc 2 1610 0
	push	{r4, r5, lr}	@
.LCFI11:
	.cfi_def_cfa_offset 12
	.loc 2 1615 0
	bne	.L180	@,
	.cfi_offset 14, -4
	.cfi_offset 5, -8
	.cfi_offset 4, -12
	.loc 2 1616 0
	asrs	r2, r2, #1	@ length, length,
.LVL44:
	.loc 2 1617 0
	movw	r4, #19153	@ ccr_val,
	b	.L178	@
.LVL45:
.L180:
	.loc 2 1612 0
	movw	r4, #17873	@ ccr_val,
.LVL46:
.L178:
	.loc 2 1619 0
	ldr	r3, .L181	@ tmp151,
	mov	r5, #65536	@ tmp152,
	str	r5, [r3, #4]	@ tmp152, 1073897472B->IFCR
	.loc 2 1620 0
	str	r0, [r3, #96]	@ dest, 1073897560B->CPAR
	.loc 2 1621 0
	str	r1, [r3, #100]	@ src, 1073897560B->CMAR
	.loc 2 1622 0
	str	r2, [r3, #92]	@ length, 1073897560B->CNDTR
	.loc 2 1623 0
	str	r4, [r3, #88]	@ ccr_val, 1073897560B->CCR
.L179:
	.loc 2 1625 0 discriminator 1
	ldr	r3, .L181	@ tmp157,
	ldr	r3, [r3, #0]	@ D.7593, 1073897472B->ISR
	tst	r3, #65536	@ D.7593,
	beq	.L179	@,
	.loc 2 1626 0
	pop	{r4, r5, pc}	@
.L182:
	.align	2
.L181:
	.word	1073897472
	.cfi_endproc
.LFE104:
	.size	sub_memcpy2_dma, .-sub_memcpy2_dma
	.section	.text.platform_memcpy,"ax",%progbits
	.align	1
	.global	platform_memcpy
	.thumb
	.thumb_func
	.type	platform_memcpy, %function
platform_memcpy:
.LFB105:
	.loc 2 1629 0
	.cfi_startproc
	@ args = 0, pretend = 0, frame = 0
	@ frame_needed = 0, uses_anonymous_args = 0
	@ link register save eliminated.
.LVL47:
	.loc 2 1646 0
	.loc 2 1635 0
	b	sub_memcpy_dma	@
	.cfi_endproc
.LFE105:
	.size	platform_memcpy, .-platform_memcpy
	.section	.text.platform_memcpy_2,"ax",%progbits
	.align	1
	.global	platform_memcpy_2
	.thumb
	.thumb_func
	.type	platform_memcpy_2, %function
platform_memcpy_2:
.LFB106:
	.loc 2 1649 0
	.cfi_startproc
	@ args = 0, pretend = 0, frame = 0
	@ frame_needed = 0, uses_anonymous_args = 0
	@ link register save eliminated.
.LVL48:
	.loc 2 1663 0
	.loc 2 1651 0
	b	sub_memcpy2_dma	@
	.cfi_endproc
.LFE106:
	.size	platform_memcpy_2, .-platform_memcpy_2
	.section	.text.platform_memset,"ax",%progbits
	.align	1
	.global	platform_memset
	.thumb
	.thumb_func
	.type	platform_memset, %function
platform_memset:
.LFB107:
	.loc 2 1667 0
	.cfi_startproc
	@ args = 0, pretend = 0, frame = 8
	@ frame_needed = 0, uses_anonymous_args = 0
.LVL49:
	push	{r0, r1, r4, lr}	@
.LCFI12:
	.cfi_def_cfa_offset 16
.LVL50:
	.loc 2 1667 0
	add	r3, sp, #8	@ value.1,,
.LVL51:
	strb	r1, [r3, #-1]!	@ value, value
	.loc 2 1672 0
	ldr	r1, .L187	@ tmp142,
	.cfi_offset 14, -4
	.cfi_offset 4, -8
	.cfi_offset 1, -12
	.cfi_offset 0, -16
.LVL52:
	mov	r4, #65536	@ tmp143,
	str	r4, [r1, #4]	@ tmp143, 1073897472B->IFCR
	.loc 2 1673 0
	str	r0, [r1, #96]	@ dest, 1073897560B->CPAR
	.loc 2 1674 0
	str	r3, [r1, #100]	@ value.1, 1073897560B->CMAR
	.loc 2 1676 0
	movw	r3, #16465	@ tmp148,
	.loc 2 1675 0
	str	r2, [r1, #92]	@ length, 1073897560B->CNDTR
	.loc 2 1676 0
	str	r3, [r1, #88]	@ tmp148, 1073897560B->CCR
.L186:
	.loc 2 1681 0 discriminator 1
	ldr	r3, .L187	@ tmp149,
	ldr	r3, [r3, #0]	@ D.7577, 1073897472B->ISR
	tst	r3, #65536	@ D.7577,
	beq	.L186	@,
	.loc 2 1686 0
	pop	{r2, r3, r4, pc}
.L188:
	.align	2
.L187:
	.word	1073897472
	.cfi_endproc
.LFE107:
	.size	platform_memset, .-platform_memset
	.section	.text.sub_timed_wfe,"ax",%progbits
	.align	1
	.global	sub_timed_wfe
	.thumb
	.thumb_func
	.type	sub_timed_wfe, %function
sub_timed_wfe:
.LFB108:
	.loc 2 1691 0
	.cfi_startproc
	@ args = 0, pretend = 0, frame = 0
	@ frame_needed = 0, uses_anonymous_args = 0
	@ link register save eliminated.
.LVL53:
	.loc 2 1699 0
	b	.L190	@
.L191:
.LBB22:
.LBB23:
	.loc 3 1212 0
@ 1212 "B:\otplatform\stm32_mculib\CMSIS\CM3\CoreSupport/core_cm3.h" 1
	wfe
@ 0 "" 2
	.thumb
.L190:
.LBE23:
.LBE22:
	.loc 2 1699 0 discriminator 1
	ldr	r3, .L192	@ tmp138,
	ldrh	r3, [r3, #16]	@, 1073810432B->SR
	tst	r3, #1	@ 1073810432B->SR,
	beq	.L191	@,
	.loc 2 1703 0
	bx	lr	@
.L193:
	.align	2
.L192:
	.word	1073810432
	.cfi_endproc
.LFE108:
	.size	sub_timed_wfe, .-sub_timed_wfe
	.section	.text.platform_block,"ax",%progbits
	.align	1
	.global	platform_block
	.thumb
	.thumb_func
	.type	platform_block, %function
platform_block:
.LFB109:
	.loc 2 1707 0
	.cfi_startproc
	@ args = 0, pretend = 0, frame = 0
	@ frame_needed = 0, uses_anonymous_args = 0
	@ link register save eliminated.
.LVL54:
	.loc 2 1708 0
	movs	r1, #0	@,
	.loc 2 1709 0
	.loc 2 1708 0
	b	sub_timed_wfe	@
	.cfi_endproc
.LFE109:
	.size	platform_block, .-platform_block
	.section	.text.platform_delay,"ax",%progbits
	.align	1
	.global	platform_delay
	.thumb
	.thumb_func
	.type	platform_delay, %function
platform_delay:
.LFB110:
	.loc 2 1714 0
	.cfi_startproc
	@ args = 0, pretend = 0, frame = 0
	@ frame_needed = 0, uses_anonymous_args = 0
	@ link register save eliminated.
.LVL55:
	.loc 2 1715 0
	movs	r1, #31	@,
	.loc 2 1716 0
	.loc 2 1715 0
	b	sub_timed_wfe	@
	.cfi_endproc
.LFE110:
	.size	platform_delay, .-platform_delay
	.section	.text.platform_swdelay_ms,"ax",%progbits
	.align	1
	.global	platform_swdelay_ms
	.thumb
	.thumb_func
	.type	platform_swdelay_ms, %function
platform_swdelay_ms:
.LFB111:
	.loc 2 1722 0
	.cfi_startproc
	@ args = 0, pretend = 0, frame = 0
	@ frame_needed = 0, uses_anonymous_args = 0
	@ link register save eliminated.
.LVL56:
	.loc 2 1728 0
	bx	lr	@
	.cfi_endproc
.LFE111:
	.size	platform_swdelay_ms, .-platform_swdelay_ms
	.section	.text.platform_swdelay_us,"ax",%progbits
	.align	1
	.global	platform_swdelay_us
	.thumb
	.thumb_func
	.type	platform_swdelay_us, %function
platform_swdelay_us:
.LFB112:
	.loc 2 1733 0
	.cfi_startproc
	@ args = 0, pretend = 0, frame = 0
	@ frame_needed = 0, uses_anonymous_args = 0
	@ link register save eliminated.
.LVL57:
	.loc 2 1739 0
	bx	lr	@
	.cfi_endproc
.LFE112:
	.size	platform_swdelay_us, .-platform_swdelay_us
	.comm	platform_ext,180,4
	.comm	platform,2,2
	.section	.rodata
	.align	1
	.set	.LANCHOR0,. + 0
	.type	len_div.6290, %object
	.size	len_div.6290, 8
len_div.6290:
	.short	2
	.short	0
	.short	1
	.short	0
	.type	ccr.6289, %object
	.size	ccr.6289, 8
ccr.6289:
	.short	19153
	.short	16593
	.short	17873
	.short	16593
	.text
.Letext0: